target datalayout = "e-m:e-p270:32:32-p271:32:32-p272:64:64-i64:64-i128:128-f80:128-n8:16:32:64-S128"
target triple = "x86_64-pc-linux-gnu"

%struct.sharedObjectsStruct = type { ptr, ptr, ptr, ptr, ptr, ptr, ptr, ptr, [4 x ptr], [4 x ptr], [4 x ptr], [4 x ptr], ptr, ptr, ptr, ptr, ptr, ptr, ptr, ptr, ptr, ptr, ptr, ptr, ptr, ptr, ptr, ptr, ptr, ptr, ptr, ptr, ptr, ptr, ptr, ptr, ptr, ptr, ptr, ptr, ptr, ptr, ptr, ptr, ptr, ptr, ptr, ptr, ptr, ptr, ptr, ptr, ptr, ptr, ptr, ptr, ptr, ptr, ptr, ptr, ptr, ptr, ptr, ptr, ptr, ptr, ptr, ptr, ptr, ptr, ptr, ptr, ptr, ptr, ptr, ptr, ptr, ptr, ptr, ptr, ptr, ptr, ptr, ptr, ptr, ptr, ptr, ptr, [10 x ptr], [10000 x ptr], [32 x ptr], [32 x ptr], [32 x ptr], [32 x ptr], ptr, ptr }
%struct.client = type { i64, i64, ptr, i8, i8, i8, i8, i32, ptr, ptr, ptr, ptr, ptr, i64, i64, i32, ptr, i32, i32, ptr, i64, ptr, ptr, ptr, ptr, ptr, i32, i32, i64, ptr, i64, ptr, i64, i64, i64, i32, ptr, i64, i64, i32, i32, i32, i32, i64, i64, ptr, i64, i64, i64, i64, i64, i64, i64, i64, [41 x i8], i32, ptr, i32, i32, i64, %struct.multiState, %struct.blockingState, i64, ptr, ptr, ptr, ptr, ptr, ptr, ptr, ptr, ptr, ptr, ptr, ptr, ptr, ptr, i64, ptr, i64, i32, ptr, ptr, ptr, i64, %struct.listNode, i64, i64, i32, i64, ptr }
%struct.multiState = type { ptr, i32, i32, i32, i64, i32 }
%struct.blockingState = type { i32, i64, i32, ptr, i32, i32, i64, ptr, ptr, i64 }
%struct.listNode = type { ptr, ptr, ptr }

@shared = external global %struct.sharedObjectsStruct, align 8

; Function Attrs: nounwind uwtable
define dso_local void @addReplyPubsubPatMessage(ptr noundef %0, ptr noundef %1, ptr noundef %2, ptr noundef %3) #0 {
  %5 = alloca ptr, align 8
  %6 = alloca ptr, align 8
  %7 = alloca ptr, align 8
  %8 = alloca ptr, align 8
  %9 = alloca i64, align 8
  store ptr %0, ptr %5, align 8, !tbaa !5
  store ptr %1, ptr %6, align 8, !tbaa !33
  store ptr %2, ptr %7, align 8, !tbaa !33
  store ptr %3, ptr %8, align 8, !tbaa !33
  call void @llvm.lifetime.start.p0(i64 8, ptr %9) #8
  %10 = load ptr, ptr %5, align 8, !tbaa !5
  %11 = getelementptr inbounds nuw %struct.client, ptr %10, i32 0, i32 1
  %12 = load i64, ptr %11, align 8, !tbaa !34
  store i64 %12, ptr %9, align 8, !tbaa !30
  %13 = load ptr, ptr %5, align 8, !tbaa !5
  %14 = getelementptr inbounds nuw %struct.client, ptr %13, i32 0, i32 1
  %15 = load i64, ptr %14, align 8, !tbaa !34
  %16 = or i64 %15, 70368744177664
  store i64 %16, ptr %14, align 8, !tbaa !34
  %17 = load ptr, ptr %5, align 8, !tbaa !5
  %18 = getelementptr inbounds nuw %struct.client, ptr %17, i32 0, i32 7
  %19 = load i32, ptr %18, align 4, !tbaa !35
  %20 = icmp eq i32 %19, 2
  br i1 %20, label %21, label %24

21:                                               ; preds = %4
  %22 = load ptr, ptr %5, align 8, !tbaa !5
  %23 = load ptr, ptr getelementptr inbounds ([32 x ptr], ptr getelementptr inbounds nuw (%struct.sharedObjectsStruct, ptr @shared, i32 0, i32 90), i64 0, i64 4), align 8, !tbaa !33
  call void @addReply(ptr noundef %22, ptr noundef %23)
  br label %26

24:                                               ; preds = %4
  %25 = load ptr, ptr %5, align 8, !tbaa !5
  call void @addReplyPushLen(ptr noundef %25, i64 noundef 4)
  br label %26

26:                                               ; preds = %24, %21
  %27 = load ptr, ptr %5, align 8, !tbaa !5
  %28 = load ptr, ptr getelementptr inbounds nuw (%struct.sharedObjectsStruct, ptr @shared, i32 0, i32 33), align 8, !tbaa !36
  call void @addReply(ptr noundef %27, ptr noundef %28)
  %29 = load ptr, ptr %5, align 8, !tbaa !5
  %30 = load ptr, ptr %6, align 8, !tbaa !33
  call void @addReplyBulk(ptr noundef %29, ptr noundef %30)
  %31 = load ptr, ptr %5, align 8, !tbaa !5
  %32 = load ptr, ptr %7, align 8, !tbaa !33
  call void @addReplyBulk(ptr noundef %31, ptr noundef %32)
  %33 = load ptr, ptr %5, align 8, !tbaa !5
  %34 = load ptr, ptr %8, align 8, !tbaa !33
  call void @addReplyBulk(ptr noundef %33, ptr noundef %34)
  %35 = load i64, ptr %9, align 8, !tbaa !30
  %36 = and i64 %35, 70368744177664
  %37 = icmp ne i64 %36, 0
  br i1 %37, label %43, label %38

38:                                               ; preds = %26
  %39 = load ptr, ptr %5, align 8, !tbaa !5
  %40 = getelementptr inbounds nuw %struct.client, ptr %39, i32 0, i32 1
  %41 = load i64, ptr %40, align 8, !tbaa !34
  %42 = and i64 %41, -70368744177665
  store i64 %42, ptr %40, align 8, !tbaa !34
  br label %43

43:                                               ; preds = %38, %26
  call void @llvm.lifetime.end.p0(i64 8, ptr %9) #8
  ret void
}