; Function Attrs: nounwind uwtable
define dso_local void @addReplyPubsubPatMessage(ptr noundef %0, ptr noundef %1, ptr noundef %2, ptr noundef %3) local_unnamed_addr #2 {
  %5 = getelementptr inbounds nuw i8, ptr %0, i64 8
  %6 = load i64, ptr %5, align 8, !tbaa !31
  %7 = or i64 %6, 70368744177664
  store i64 %7, ptr %5, align 8, !tbaa !31
  %8 = getelementptr inbounds nuw i8, ptr %0, i64 28
  %9 = load i32, ptr %8, align 4, !tbaa !32
  %10 = icmp eq i32 %9, 2
  br i1 %10, label %11, label %13

11:                                               ; preds = %4
  %12 = load ptr, ptr getelementptr inbounds nuw (i8, ptr @shared, i64 80912), align 8, !tbaa !33
  tail call void @addReply(ptr noundef nonnull %0, ptr noundef %12) #9
  br label %14

13:                                               ; preds = %4
  tail call void @addReplyPushLen(ptr noundef nonnull %0, i64 noundef 4) #9
  br label %14

14:                                               ; preds = %13, %11
  %15 = load ptr, ptr getelementptr inbounds nuw (i8, ptr @shared, i64 360), align 8, !tbaa !34
  tail call void @addReply(ptr noundef nonnull %0, ptr noundef %15) #9
  tail call void @addReplyBulk(ptr noundef nonnull %0, ptr noundef %1) #9
  tail call void @addReplyBulk(ptr noundef nonnull %0, ptr noundef %2) #9
  tail call void @addReplyBulk(ptr noundef nonnull %0, ptr noundef %3) #9
  %16 = and i64 %6, 70368744177664
  %.not = icmp eq i64 %16, 0
  br i1 %.not, label %17, label %20

17:                                               ; preds = %14
  %18 = load i64, ptr %5, align 8, !tbaa !31
  %19 = and i64 %18, -70368744177665
  store i64 %19, ptr %5, align 8, !tbaa !31
  br label %20

20:                                               ; preds = %17, %14
  ret void
}